Certificate:
    Data:
        Version: 3 (0x2)
        Serial Number: 0 (0x0)
    Signature Algorithm: sha256WithRSAEncryption
        Issuer: C=TW, ST=Taiwan, L=Taiwan, O=Ignition Design Labs, OU=RW, CN=ignitiondl.com/emailAddress=nobody@ignitiondl.com
        Validity
            Not Before: Sep 27 21:28:57 2015 GMT
            Not After : Sep 26 21:28:57 2016 GMT
        Subject: C=TW, ST=Taiwan, O=Ignition Design Labs, OU=RW, CN=ignitiondl.com/emailAddress=nobody@ignitiondl.com
        Subject Public Key Info:
            Public Key Algorithm: rsaEncryption
                Public-Key: (2048 bit)
                Modulus:
                    00:a5:08:bc:65:93:32:47:ed:c5:1a:6c:4b:19:d9:
                    7d:24:c8:82:31:87:b0:9c:2a:12:38:05:5b:e5:0f:
                    a0:ae:18:dd:53:17:3a:14:dc:9c:96:89:fa:56:89:
                    80:18:72:08:5e:39:24:7a:ed:05:6d:85:90:9f:cd:
                    50:2c:2f:05:7b:4b:51:60:2c:44:80:06:3c:81:d5:
                    0f:56:72:a1:1f:ec:79:c3:a8:cc:7e:5e:76:6e:47:
                    6f:5b:6b:d3:7a:27:73:4a:62:08:1a:81:d1:94:9d:
                    20:aa:dc:74:dd:f2:c7:68:33:7d:73:24:b4:4c:70:
                    c2:a1:2d:c3:8a:66:77:14:2e:bf:01:c0:a2:23:72:
                    7a:e5:6c:4c:c3:7e:9e:c7:cf:1a:85:2e:ca:46:47:
                    c7:4b:80:7f:79:dc:a4:88:4f:fb:12:83:81:0c:fc:
                    26:4e:f5:cf:a6:3f:b3:94:de:64:c2:82:74:59:bd:
                    80:0e:e2:12:31:12:3d:5a:14:26:d4:6d:26:cd:5a:
                    6c:e1:de:0d:f4:82:12:32:ba:59:28:a9:c9:83:e7:
                    d3:8a:ba:91:ff:e3:8a:06:e8:1d:12:2f:97:52:3e:
                    24:f0:52:fe:13:2c:68:2d:e5:99:db:1c:31:9c:c9:
                    03:ea:2e:46:e2:89:24:48:aa:5d:eb:76:50:a0:19:
                    a4:13
                Exponent: 65537 (0x10001)
        X509v3 extensions:
            X509v3 Basic Constraints: 
                CA:FALSE
            Netscape Comment: 
                OpenSSL Generated Certificate
            X509v3 Subject Key Identifier: 
                15:79:F0:48:A4:0C:54:11:57:3D:13:9B:8A:F9:4D:83:74:3C:21:51
            X509v3 Authority Key Identifier: 
                DirName:/C=TW/ST=Taiwan/L=Taiwan/O=Ignition Design Labs/OU=RW/CN=ignitiondl.com/emailAddress=nobody@ignitiondl.com
                serial:93:35:AB:C8:A5:1C:F9:AB

    Signature Algorithm: sha256WithRSAEncryption
         6f:9a:a5:ef:4d:2d:4e:82:da:98:12:da:e1:7a:c1:74:95:33:
         cd:f8:83:ad:f0:f3:fb:1c:b8:44:63:f1:42:2c:20:e0:e6:1c:
         2b:fe:f8:78:aa:03:5b:79:5c:41:b5:79:da:63:e2:73:d1:c6:
         d3:f8:56:db:a9:32:57:4c:89:db:ac:0c:4e:30:f5:62:2a:8b:
         4e:82:45:fa:aa:7d:74:b8:e5:87:c7:83:2e:59:a1:f0:25:44:
         3a:e9:63:f0:6d:85:22:8a:f3:04:1c:3a:7e:62:fc:ea:b4:36:
         71:8f:89:0b:73:ed:f6:59:f8:60:31:10:63:63:49:f5:b6:87:
         a8:e4:41:ad:34:ea:74:42:fe:67:a0:2e:02:21:96:ef:ad:15:
         9a:1f:68:9e:42:70:db:56:a9:36:db:75:1b:1c:29:44:d6:36:
         f3:90:33:a3:3c:a2:37:75:fc:49:74:df:3a:a6:43:7d:77:a3:
         0c:51:c9:e1:2c:18:03:d9:94:ce:0a:e0:a0:5c:c9:9c:75:56:
         f5:ab:79:5b:8d:af:f2:4f:72:f8:97:bf:2b:27:01:b1:e8:62:
         81:95:ee:c0:7a:46:5a:2c:18:5d:21:9e:fb:e1:a0:a9:88:24:
         ce:d5:0e:1e:0b:44:b0:fe:e3:70:3d:a0:d2:83:43:f1:eb:f2:
         f2:1b:bd:0c
-----BEGIN CERTIFICATE-----
MIIEujCCA6KgAwIBAgIBADANBgkqhkiG9w0BAQsFADCBmjELMAkGA1UEBhMCVFcx
DzANBgNVBAgMBlRhaXdhbjEPMA0GA1UEBwwGVGFpd2FuMR0wGwYDVQQKDBRJZ25p
dGlvbiBEZXNpZ24gTGFiczELMAkGA1UECwwCUlcxFzAVBgNVBAMMDmlnbml0aW9u
ZGwuY29tMSQwIgYJKoZIhvcNAQkBFhVub2JvZHlAaWduaXRpb25kbC5jb20wHhcN
MTUwOTI3MjEyODU3WhcNMTYwOTI2MjEyODU3WjCBiTELMAkGA1UEBhMCVFcxDzAN
BgNVBAgMBlRhaXdhbjEdMBsGA1UECgwUSWduaXRpb24gRGVzaWduIExhYnMxCzAJ
BgNVBAsMAlJXMRcwFQYDVQQDDA5pZ25pdGlvbmRsLmNvbTEkMCIGCSqGSIb3DQEJ
ARYVbm9ib2R5QGlnbml0aW9uZGwuY29tMIIBIjANBgkqhkiG9w0BAQEFAAOCAQ8A
MIIBCgKCAQEApQi8ZZMyR+3FGmxLGdl9JMiCMYewnCoSOAVb5Q+grhjdUxc6FNyc
lon6VomAGHIIXjkkeu0FbYWQn81QLC8Fe0tRYCxEgAY8gdUPVnKhH+x5w6jMfl52
bkdvW2vTeidzSmIIGoHRlJ0gqtx03fLHaDN9cyS0THDCoS3DimZ3FC6/AcCiI3J6
5WxMw36ex88ahS7KRkfHS4B/edykiE/7EoOBDPwmTvXPpj+zlN5kwoJ0Wb2ADuIS
MRI9WhQm1G0mzVps4d4N9IISMrpZKKnJg+fTirqR/+OKBugdEi+XUj4k8FL+Eyxo
LeWZ2xwxnMkD6i5G4okkSKpd63ZQoBmkEwIDAQABo4IBGDCCARQwCQYDVR0TBAIw
ADAsBglghkgBhvhCAQ0EHxYdT3BlblNTTCBHZW5lcmF0ZWQgQ2VydGlmaWNhdGUw
HQYDVR0OBBYEFBV58EikDFQRVz0Tm4r5TYN0PCFRMIG5BgNVHSMEgbEwga6hgaCk
gZ0wgZoxCzAJBgNVBAYTAlRXMQ8wDQYDVQQIDAZUYWl3YW4xDzANBgNVBAcMBlRh
aXdhbjEdMBsGA1UECgwUSWduaXRpb24gRGVzaWduIExhYnMxCzAJBgNVBAsMAlJX
MRcwFQYDVQQDDA5pZ25pdGlvbmRsLmNvbTEkMCIGCSqGSIb3DQEJARYVbm9ib2R5
QGlnbml0aW9uZGwuY29tggkAkzWryKUc+aswDQYJKoZIhvcNAQELBQADggEBAG+a
pe9NLU6C2pgS2uF6wXSVM834g63w8/scuERj8UIsIODmHCv++HiqA1t5XEG1edpj
4nPRxtP4VtupMldMidusDE4w9WIqi06CRfqqfXS45YfHgy5ZofAlRDrpY/BthSKK
8wQcOn5i/Oq0NnGPiQtz7fZZ+GAxEGNjSfW2h6jkQa006nRC/megLgIhlu+tFZof
aJ5CcNtWqTbbdRscKUTWNvOQM6M8ojd1/El03zqmQ313owxRyeEsGAPZlM4K4KBc
yZx1VvWreVuNr/JPcviXvysnAbHoYoGV7sB6RlosGF0hnvvhoKmIJM7VDh4LRLD+
43A9oNKDQ/Hr8vIbvQw=
-----END CERTIFICATE-----
